target datalayout = "e-m:e-p270:32:32-p271:32:32-p272:64:64-i64:64-i128:128-f80:128-n8:16:32:64-S128"
target triple = "x86_64-pc-linux-gnu"

%struct._packet_info = type { ptr, ptr, i32, i32, %struct.nstime_t, %struct.nstime_t, %struct.nstime_t, i8, ptr, ptr, ptr, ptr, %struct._address, %struct._address, %struct._address, %struct._address, %struct._address, %struct._address, i32, ptr, i8, [3 x i8], %struct.anon, i32, i32, i32, i32, ptr, i8, ptr, ptr, i16, i16, i32, i32, i16, i32, i32, ptr, ptr, ptr, i8, i8, i16, i16, i16, i32, i16, i16, ptr, ptr, ptr, ptr, ptr, i32, i32 }
%struct.nstime_t = type { i64, i32 }
%struct._address = type { i32, i32, ptr, ptr }
%struct.anon = type { i8, [3 x i8] }

@.str.198 = private unnamed_addr constant [3 x i8] c"%u\00", align 1

; Function Attrs: null_pointer_is_valid sspstrong uwtable
define internal zeroext i1 @get_payload_length(ptr noundef %0, ptr noundef %1, i32 noundef %2, i32 noundef %3, ptr noundef %4, ptr noundef %5) #0 {
  %7 = alloca i1, align 1
  %8 = alloca ptr, align 8
  %9 = alloca ptr, align 8
  %10 = alloca i32, align 4
  %11 = alloca i32, align 4
  %12 = alloca ptr, align 8
  %13 = alloca ptr, align 8
  %14 = alloca ptr, align 8
  %15 = alloca ptr, align 8
  %16 = alloca ptr, align 8
  %17 = alloca ptr, align 8
  %18 = alloca i32, align 4
  %19 = alloca i32, align 4
  %20 = alloca i32, align 4
  %21 = alloca i32, align 4
  %22 = alloca i32, align 4
  store ptr %0, ptr %8, align 8
  store ptr %1, ptr %9, align 8
  store i32 %2, ptr %10, align 4
  store i32 %3, ptr %11, align 4
  store ptr %4, ptr %12, align 8
  store ptr %5, ptr %13, align 8
  call void @llvm.lifetime.start.p0(i64 8, ptr %14) #9
  call void @llvm.lifetime.start.p0(i64 8, ptr %15) #9
  call void @llvm.lifetime.start.p0(i64 8, ptr %16) #9
  call void @llvm.lifetime.start.p0(i64 8, ptr %17) #9
  call void @llvm.lifetime.start.p0(i64 4, ptr %18) #9
  call void @llvm.lifetime.start.p0(i64 4, ptr %19) #9
  store i32 0, ptr %19, align 4
  call void @llvm.lifetime.start.p0(i64 4, ptr %20) #9
  call void @llvm.lifetime.start.p0(i64 4, ptr %21) #9
  %23 = load ptr, ptr %8, align 8
  %24 = load i32, ptr %11, align 4
  %25 = call i32 @tvb_find_line_end(ptr noundef %23, i32 noundef %24, i32 noundef -1, ptr noundef %21, i1 noundef zeroext false)
  store i32 %25, ptr %20, align 4
  %26 = load i32, ptr %20, align 4
  %27 = icmp slt i32 %26, 0
  br i1 %27, label %28, label %29

28:                                               ; preds = %6
  store i1 false, ptr %7, align 1
  store i32 1, ptr %22, align 4
  br label %88

29:                                               ; preds = %6
  %30 = load ptr, ptr %8, align 8
  %31 = load i32, ptr %11, align 4
  %32 = load i32, ptr %20, align 4
  %33 = call ptr @tvb_get_ptr(ptr noundef %30, i32 noundef %31, i32 noundef %32)
  store ptr %33, ptr %15, align 8
  %34 = load ptr, ptr %15, align 8
  %35 = load i32, ptr %20, align 4
  %36 = sext i32 %35 to i64
  %37 = getelementptr i8, ptr %34, i64 %36
  store ptr %37, ptr %16, align 8
  br label %38

38:                                               ; preds = %50, %29
  %39 = load i32, ptr %19, align 4
  %40 = add i32 %39, 1
  store i32 %40, ptr %19, align 4
  %41 = load i32, ptr %10, align 4
  %42 = icmp slt i32 %40, %41
  br i1 %42, label %43, label %60

43:                                               ; preds = %38
  %44 = load ptr, ptr %15, align 8
  %45 = load ptr, ptr %16, align 8
  %46 = call i32 @get_token_len(ptr noundef %44, ptr noundef %45, ptr noundef %14)
  store i32 %46, ptr %18, align 4
  %47 = load i32, ptr %18, align 4
  %48 = icmp eq i32 %47, 0
  br i1 %48, label %49, label %50

49:                                               ; preds = %43
  store i1 false, ptr %7, align 1
  store i32 1, ptr %22, align 4
  br label %88

50:                                               ; preds = %43
  %51 = load ptr, ptr %14, align 8
  %52 = load ptr, ptr %15, align 8
  %53 = ptrtoint ptr %51 to i64
  %54 = ptrtoint ptr %52 to i64
  %55 = sub i64 %53, %54
  %56 = trunc i64 %55 to i32
  %57 = load i32, ptr %11, align 4
  %58 = add i32 %57, %56
  store i32 %58, ptr %11, align 4
  %59 = load ptr, ptr %14, align 8
  store ptr %59, ptr %15, align 8
  br label %38, !llvm.loop !15

60:                                               ; preds = %38
  %61 = load ptr, ptr %15, align 8
  %62 = load ptr, ptr %16, align 8
  %63 = call i32 @get_token_len(ptr noundef %61, ptr noundef %62, ptr noundef %14)
  store i32 %63, ptr %18, align 4
  %64 = load i32, ptr %18, align 4
  %65 = icmp eq i32 %64, 0
  br i1 %65, label %66, label %67

66:                                               ; preds = %60
  store i1 false, ptr %7, align 1
  store i32 1, ptr %22, align 4
  br label %88

67:                                               ; preds = %60
  %68 = load ptr, ptr %9, align 8
  %69 = getelementptr inbounds nuw %struct._packet_info, ptr %68, i32 0, i32 51
  %70 = load ptr, ptr %69, align 8
  %71 = load ptr, ptr %8, align 8
  %72 = load i32, ptr %11, align 4
  %73 = load i32, ptr %18, align 4
  %74 = call ptr @tvb_get_string_enc(ptr noundef %70, ptr noundef %71, i32 noundef %72, i32 noundef %73, i32 noundef 0)
  store ptr %74, ptr %17, align 8
  %75 = load ptr, ptr %17, align 8
  %76 = icmp ne ptr %75, null
  br i1 %76, label %77, label %86

77:                                               ; preds = %67
  %78 = load ptr, ptr %17, align 8
  %79 = load ptr, ptr %12, align 8
  %80 = call i32 (ptr, ptr, ...) @__isoc99_sscanf(ptr noundef %78, ptr noundef @.str.198, ptr noundef %79) #9
  %81 = icmp eq i32 %80, 1
  br i1 %81, label %82, label %84

82:                                               ; preds = %77
  %83 = load ptr, ptr %13, align 8
  store i8 1, ptr %83, align 1
  br label %85

84:                                               ; preds = %77
  store i1 false, ptr %7, align 1
  store i32 1, ptr %22, align 4
  br label %88

85:                                               ; preds = %82
  br label %87

86:                                               ; preds = %67
  store i1 false, ptr %7, align 1
  store i32 1, ptr %22, align 4
  br label %88

87:                                               ; preds = %85
  store i1 true, ptr %7, align 1
  store i32 1, ptr %22, align 4
  br label %88

88:                                               ; preds = %87, %86, %84, %66, %49, %28
  call void @llvm.lifetime.end.p0(i64 4, ptr %21) #9
  call void @llvm.lifetime.end.p0(i64 4, ptr %20) #9
  call void @llvm.lifetime.end.p0(i64 4, ptr %19) #9
  call void @llvm.lifetime.end.p0(i64 4, ptr %18) #9
  call void @llvm.lifetime.end.p0(i64 8, ptr %17) #9
  call void @llvm.lifetime.end.p0(i64 8, ptr %16) #9
  call void @llvm.lifetime.end.p0(i64 8, ptr %15) #9
  call void @llvm.lifetime.end.p0(i64 8, ptr %14) #9
  %89 = load i1, ptr %7, align 1
  ret i1 %89
}