; Function Attrs: null_pointer_is_valid sspstrong uwtable
define internal fastcc noundef zeroext i1 @get_payload_length(ptr noundef %0, ptr noundef readonly captures(none) %1, i32 noundef range(i32 4, 6) %2, i32 noundef %3, ptr noundef %4, ptr noundef writeonly captures(none) %5) unnamed_addr #0 {
  %7 = alloca ptr, align 8
  %8 = alloca i32, align 4
  call void @llvm.lifetime.start.p0(i64 8, ptr nonnull %7) #8
  call void @llvm.lifetime.start.p0(i64 4, ptr nonnull %8) #8
  %9 = call i32 @tvb_find_line_end(ptr noundef %0, i32 noundef %3, i32 noundef -1, ptr noundef nonnull %8, i1 noundef zeroext false)
  %10 = icmp slt i32 %9, 0
  br i1 %10, label %.loopexit, label %11

11:                                               ; preds = %6
  %12 = call ptr @tvb_get_ptr(ptr noundef %0, i32 noundef %3, i32 noundef %9)
  %13 = zext nneg i32 %9 to i64
  %14 = getelementptr i8, ptr %12, i64 %13
  br label %15

15:                                               ; preds = %11, %19
  %16 = phi i32 [ 1, %11 ], [ %26, %19 ]
  %.02736 = phi i32 [ %3, %11 ], [ %25, %19 ]
  %.02835 = phi ptr [ %12, %11 ], [ %20, %19 ]
  %17 = call i32 @get_token_len(ptr noundef %.02835, ptr noundef %14, ptr noundef nonnull %7)
  %18 = icmp eq i32 %17, 0
  br i1 %18, label %.loopexit, label %19

19:                                               ; preds = %15
  %20 = load ptr, ptr %7, align 8
  %21 = ptrtoint ptr %20 to i64
  %22 = ptrtoint ptr %.02835 to i64
  %23 = sub i64 %21, %22
  %24 = trunc i64 %23 to i32
  %25 = add i32 %.02736, %24
  %26 = add nuw nsw i32 %16, 1
  %exitcond.not = icmp eq i32 %26, %2
  br i1 %exitcond.not, label %27, label %15, !llvm.loop !59

27:                                               ; preds = %19
  %28 = call i32 @get_token_len(ptr noundef %20, ptr noundef %14, ptr noundef nonnull %7)
  %29 = icmp eq i32 %28, 0
  br i1 %29, label %.loopexit, label %30

30:                                               ; preds = %27
  %31 = getelementptr inbounds nuw i8, ptr %1, i64 408
  %32 = load ptr, ptr %31, align 8
  %33 = call ptr @tvb_get_string_enc(ptr noundef %32, ptr noundef %0, i32 noundef %25, i32 noundef %28, i32 noundef 0)
  %.not = icmp eq ptr %33, null
  br i1 %.not, label %.loopexit, label %34

34:                                               ; preds = %30
  %35 = call i32 (ptr, ptr, ...) @__isoc99_sscanf(ptr noundef nonnull %33, ptr noundef nonnull @.str.198, ptr noundef %4) #8
  %36 = icmp eq i32 %35, 1
  br i1 %36, label %37, label %.loopexit

37:                                               ; preds = %34
  store i8 1, ptr %5, align 1
  br label %.loopexit

.loopexit:                                        ; preds = %15, %30, %34, %27, %6, %37
  %.0 = phi i1 [ true, %37 ], [ false, %6 ], [ false, %27 ], [ false, %34 ], [ false, %30 ], [ false, %15 ]
  call void @llvm.lifetime.end.p0(i64 4, ptr nonnull %8) #8
  call void @llvm.lifetime.end.p0(i64 8, ptr nonnull %7) #8
  ret i1 %.0
}